target datalayout = "e-m:e-p270:32:32-p271:32:32-p272:64:64-i64:64-i128:128-f80:128-n8:16:32:64-S128"
target triple = "x86_64-pc-linux-gnu"

%"struct.faiss::RandomGenerator" = type { %"class.std::mersenne_twister_engine" }
%"class.std::mersenne_twister_engine" = type { [624 x i64], i64 }

; Function Attrs: mustprogress uwtable
define noundef i32 @_ZN5faiss15RandomGenerator8rand_intEv(ptr noundef nonnull align 8 dereferenceable(5000) %0) #0 align 2 {
  %2 = alloca ptr, align 8
  store ptr %0, ptr %2, align 8, !tbaa !4
  %3 = load ptr, ptr %2, align 8
  %4 = getelementptr inbounds nuw %"struct.faiss::RandomGenerator", ptr %3, i32 0, i32 0
  %5 = call noundef i64 @_ZNSt23mersenne_twister_engineImLm32ELm624ELm397ELm31ELm2567483615ELm11ELm4294967295ELm7ELm2636928640ELm15ELm4022730752ELm18ELm1812433253EEclEv(ptr noundef nonnull align 8 dereferenceable(5000) %4)
  %6 = and i64 %5, 2147483647
  %7 = trunc i64 %6 to i32
  ret i32 %7
}

; Function Attrs: mustprogress uwtable
define noundef i64 @_ZN5faiss15RandomGenerator10rand_int64Ev(ptr noundef nonnull align 8 dereferenceable(5000) %0) #0 align 2 {
  %2 = alloca ptr, align 8
  store ptr %0, ptr %2, align 8, !tbaa !4
  %3 = load ptr, ptr %2, align 8
  %4 = call noundef i32 @_ZN5faiss15RandomGenerator8rand_intEv(ptr noundef nonnull align 8 dereferenceable(5000) %3)
  %5 = sext i32 %4 to i64
  %6 = call noundef i32 @_ZN5faiss15RandomGenerator8rand_intEv(ptr noundef nonnull align 8 dereferenceable(5000) %3)
  %7 = sext i32 %6 to i64
  %8 = shl i64 %7, 31
  %9 = or i64 %5, %8
  ret i64 %9
}