; Function Attrs: mustprogress uwtable
define noundef range(i64 0, 4611686018427387904) i64 @_ZN5faiss15RandomGenerator10rand_int64Ev(ptr noundef nonnull align 8 dereferenceable(5000) %0) local_unnamed_addr #2 align 2 {
  %2 = tail call noundef i64 @_ZNSt23mersenne_twister_engineImLm32ELm624ELm397ELm31ELm2567483615ELm11ELm4294967295ELm7ELm2636928640ELm15ELm4022730752ELm18ELm1812433253EEclEv(ptr noundef nonnull align 8 dereferenceable(5000) %0)
  %3 = and i64 %2, 2147483647
  %4 = tail call noundef i64 @_ZNSt23mersenne_twister_engineImLm32ELm624ELm397ELm31ELm2567483615ELm11ELm4294967295ELm7ELm2636928640ELm15ELm4022730752ELm18ELm1812433253EEclEv(ptr noundef nonnull align 8 dereferenceable(5000) %0)
  %5 = shl i64 %4, 31
  %6 = and i64 %5, 4611686016279904256
  %7 = or disjoint i64 %6, %3
  ret i64 %7
}